target datalayout = "e-m:e-p270:32:32-p271:32:32-p272:64:64-i64:64-i128:128-f80:128-n8:16:32:64-S128"
target triple = "x86_64-pc-linux-gnu"

%"class.clang::ento::SVal" = type <{ ptr, i8, [7 x i8] }>
%"class.llvm::RefCountedBase.1110" = type { i32 }
%"struct.clang::ento::bugreporter::Tracker::Result" = type { i8, i8 }
%"struct.clang::ento::bugreporter::TrackingOptions" = type <{ i32, i8, [3 x i8] }>
%"class.llvm::IntrusiveRefCntPtr.1136" = type { ptr }

@_ZN5clang4ento11bugreporter7TrackerC1ERNS0_22PathSensitiveBugReportE = unnamed_addr alias void (ptr, ptr), ptr @_ZN5clang4ento11bugreporter7TrackerC2ERNS0_22PathSensitiveBugReportE

; Function Attrs: mustprogress nounwind uwtable
define linkonce_odr hidden void @_ZNK4llvm14RefCountedBaseIN5clang4ento11bugreporter7TrackerEE6RetainEv(ptr noundef nonnull align 4 dereferenceable(4) %0) #0 comdat align 2 {
  %2 = alloca ptr, align 8
  store ptr %0, ptr %2, align 8
  %3 = load ptr, ptr %2, align 8
  %4 = getelementptr inbounds nuw %"class.llvm::RefCountedBase.1110", ptr %3, i32 0, i32 0
  %5 = load i32, ptr %4, align 4
  %6 = add i32 %5, 1
  store i32 %6, ptr %4, align 4
  ret void
}

; Function Attrs: mustprogress nounwind uwtable
define linkonce_odr hidden void @_ZNK4llvm14RefCountedBaseIN5clang4ento11bugreporter7TrackerEE7ReleaseEv(ptr noundef nonnull align 4 dereferenceable(4) %0) #0 comdat align 2 {
  %2 = alloca ptr, align 8
  store ptr %0, ptr %2, align 8
  %3 = load ptr, ptr %2, align 8
  %4 = getelementptr inbounds nuw %"class.llvm::RefCountedBase.1110", ptr %3, i32 0, i32 0
  %5 = load i32, ptr %4, align 4
  %6 = add i32 %5, -1
  store i32 %6, ptr %4, align 4
  %7 = icmp eq i32 %6, 0
  br i1 %7, label %8, label %16

8:                                                ; preds = %1
  %9 = getelementptr inbounds i8, ptr %3, i64 -8
  %10 = icmp eq ptr %9, null
  br i1 %10, label %15, label %11

11:                                               ; preds = %8
  %12 = load ptr, ptr %9, align 8
  %13 = getelementptr inbounds ptr, ptr %12, i64 1
  %14 = load ptr, ptr %13, align 8
  call void %14(ptr noundef nonnull align 8 dereferenceable(72) %9) #15
  br label %15

15:                                               ; preds = %11, %8
  br label %16

16:                                               ; preds = %15, %1
  ret void
}

; Function Attrs: mustprogress nounwind uwtable
define linkonce_odr hidden void @_ZN4llvm22IntrusiveRefCntPtrInfoIN5clang4ento11bugreporter7TrackerEE6retainEPS4_(ptr noundef %0) #0 comdat align 2 {
  %2 = alloca ptr, align 8
  store ptr %0, ptr %2, align 8
  %3 = load ptr, ptr %2, align 8
  %4 = getelementptr inbounds i8, ptr %3, i64 8
  call void @_ZNK4llvm14RefCountedBaseIN5clang4ento11bugreporter7TrackerEE6RetainEv(ptr noundef nonnull align 4 dereferenceable(4) %4)
  ret void
}

; Function Attrs: mustprogress nounwind uwtable
define linkonce_odr hidden void @_ZN4llvm22IntrusiveRefCntPtrInfoIN5clang4ento11bugreporter7TrackerEE7releaseEPS4_(ptr noundef %0) #0 comdat align 2 {
  %2 = alloca ptr, align 8
  store ptr %0, ptr %2, align 8
  %3 = load ptr, ptr %2, align 8
  %4 = getelementptr inbounds i8, ptr %3, i64 8
  call void @_ZNK4llvm14RefCountedBaseIN5clang4ento11bugreporter7TrackerEE7ReleaseEv(ptr noundef nonnull align 4 dereferenceable(4) %4)
  ret void
}

; Function Attrs: mustprogress nounwind uwtable
define linkonce_odr hidden void @_ZN4llvm18IntrusiveRefCntPtrIN5clang4ento11bugreporter7TrackerEE6retainEv(ptr noundef nonnull align 8 dereferenceable(8) %0) #0 comdat align 2 {
  %2 = alloca ptr, align 8
  store ptr %0, ptr %2, align 8
  %3 = load ptr, ptr %2, align 8
  %4 = getelementptr inbounds nuw %"class.llvm::IntrusiveRefCntPtr.1136", ptr %3, i32 0, i32 0
  %5 = load ptr, ptr %4, align 8
  %6 = icmp ne ptr %5, null
  br i1 %6, label %7, label %10

7:                                                ; preds = %1
  %8 = getelementptr inbounds nuw %"class.llvm::IntrusiveRefCntPtr.1136", ptr %3, i32 0, i32 0
  %9 = load ptr, ptr %8, align 8
  call void @_ZN4llvm22IntrusiveRefCntPtrInfoIN5clang4ento11bugreporter7TrackerEE6retainEPS4_(ptr noundef %9)
  br label %10

10:                                               ; preds = %7, %1
  ret void
}

; Function Attrs: mustprogress nounwind uwtable
define linkonce_odr hidden void @_ZN4llvm18IntrusiveRefCntPtrIN5clang4ento11bugreporter7TrackerEE7releaseEv(ptr noundef nonnull align 8 dereferenceable(8) %0) #0 comdat align 2 {
  %2 = alloca ptr, align 8
  store ptr %0, ptr %2, align 8
  %3 = load ptr, ptr %2, align 8
  %4 = getelementptr inbounds nuw %"class.llvm::IntrusiveRefCntPtr.1136", ptr %3, i32 0, i32 0
  %5 = load ptr, ptr %4, align 8
  %6 = icmp ne ptr %5, null
  br i1 %6, label %7, label %10

7:                                                ; preds = %1
  %8 = getelementptr inbounds nuw %"class.llvm::IntrusiveRefCntPtr.1136", ptr %3, i32 0, i32 0
  %9 = load ptr, ptr %8, align 8
  call void @_ZN4llvm22IntrusiveRefCntPtrInfoIN5clang4ento11bugreporter7TrackerEE7releaseEPS4_(ptr noundef %9)
  br label %10

10:                                               ; preds = %7, %1
  ret void
}

; Function Attrs: mustprogress nounwind uwtable
define linkonce_odr hidden void @_ZN4llvm18IntrusiveRefCntPtrIN5clang4ento11bugreporter7TrackerEEC2EPS4_(ptr noundef nonnull align 8 dereferenceable(8) %0, ptr noundef %1) unnamed_addr #0 comdat align 2 {
  %3 = alloca ptr, align 8
  %4 = alloca ptr, align 8
  store ptr %0, ptr %3, align 8
  store ptr %1, ptr %4, align 8
  %5 = load ptr, ptr %3, align 8
  %6 = getelementptr inbounds nuw %"class.llvm::IntrusiveRefCntPtr.1136", ptr %5, i32 0, i32 0
  %7 = load ptr, ptr %4, align 8
  store ptr %7, ptr %6, align 8
  call void @_ZN4llvm18IntrusiveRefCntPtrIN5clang4ento11bugreporter7TrackerEE6retainEv(ptr noundef nonnull align 8 dereferenceable(8) %5)
  ret void
}

; Function Attrs: mustprogress nounwind uwtable
define linkonce_odr hidden void @_ZN4llvm18IntrusiveRefCntPtrIN5clang4ento11bugreporter7TrackerEED2Ev(ptr noundef nonnull align 8 dereferenceable(8) %0) unnamed_addr #0 comdat align 2 {
  %2 = alloca ptr, align 8
  store ptr %0, ptr %2, align 8
  %3 = load ptr, ptr %2, align 8
  call void @_ZN4llvm18IntrusiveRefCntPtrIN5clang4ento11bugreporter7TrackerEE7releaseEv(ptr noundef nonnull align 8 dereferenceable(8) %3)
  ret void
}

; Function Attrs: mustprogress nounwind uwtable
define linkonce_odr hidden noundef ptr @_ZNK4llvm18IntrusiveRefCntPtrIN5clang4ento11bugreporter7TrackerEEptEv(ptr noundef nonnull align 8 dereferenceable(8) %0) #0 comdat align 2 {
  %2 = alloca ptr, align 8
  store ptr %0, ptr %2, align 8
  %3 = load ptr, ptr %2, align 8
  %4 = getelementptr inbounds nuw %"class.llvm::IntrusiveRefCntPtr.1136", ptr %3, i32 0, i32 0
  %5 = load ptr, ptr %4, align 8
  ret ptr %5
}

; Function Attrs: mustprogress nounwind uwtable
define linkonce_odr hidden void @_ZN5clang4ento11bugreporter7Tracker6createERNS0_22PathSensitiveBugReportE(ptr dead_on_unwind noalias writable sret(%"class.llvm::IntrusiveRefCntPtr.1136") align 8 %0, ptr noundef nonnull align 8 dereferenceable(1016) %1) #0 comdat align 2 {
  %3 = alloca ptr, align 8
  %4 = alloca ptr, align 8
  store ptr %0, ptr %3, align 8
  store ptr %1, ptr %4, align 8
  %5 = call noalias noundef nonnull ptr @_Znwm(i64 noundef 72) #16
  %6 = load ptr, ptr %4, align 8
  call void @_ZN5clang4ento11bugreporter7TrackerC1ERNS0_22PathSensitiveBugReportE(ptr noundef nonnull align 8 dereferenceable(72) %5, ptr noundef nonnull align 8 dereferenceable(1016) %6)
  call void @_ZN4llvm18IntrusiveRefCntPtrIN5clang4ento11bugreporter7TrackerEEC2EPS4_(ptr noundef nonnull align 8 dereferenceable(8) %0, ptr noundef %5)
  ret void
}

; Function Attrs: mustprogress nounwind uwtable
define dso_local void @_ZN5clang4ento11bugreporter16trackStoredValueENS0_4SValEPKNS0_9MemRegionERNS0_22PathSensitiveBugReportENS1_15TrackingOptionsEPKNS_17StackFrameContextE(ptr %0, i8 %1, ptr noundef %2, ptr noundef nonnull align 8 dereferenceable(1016) %3, i64 %4, ptr noundef %5) #0 {
  %7 = alloca %"class.clang::ento::SVal", align 8
  %8 = alloca %"struct.clang::ento::bugreporter::TrackingOptions", align 4
  %9 = alloca ptr, align 8
  %10 = alloca ptr, align 8
  %11 = alloca ptr, align 8
  %12 = alloca %"class.llvm::IntrusiveRefCntPtr.1136", align 8
  %13 = alloca %"class.clang::ento::SVal", align 8
  %14 = alloca %"struct.clang::ento::bugreporter::TrackingOptions", align 4
  %15 = alloca %"struct.clang::ento::bugreporter::Tracker::Result", align 1
  %16 = getelementptr inbounds nuw { ptr, i8 }, ptr %7, i32 0, i32 0
  store ptr %0, ptr %16, align 8
  %17 = getelementptr inbounds nuw { ptr, i8 }, ptr %7, i32 0, i32 1
  store i8 %1, ptr %17, align 8
  store i64 %4, ptr %8, align 4
  store ptr %2, ptr %9, align 8
  store ptr %3, ptr %10, align 8
  store ptr %5, ptr %11, align 8
  %18 = load ptr, ptr %10, align 8
  call void @_ZN5clang4ento11bugreporter7Tracker6createERNS0_22PathSensitiveBugReportE(ptr dead_on_unwind writable sret(%"class.llvm::IntrusiveRefCntPtr.1136") align 8 %12, ptr noundef nonnull align 8 dereferenceable(1016) %18)
  %19 = call noundef ptr @_ZNK4llvm18IntrusiveRefCntPtrIN5clang4ento11bugreporter7TrackerEEptEv(ptr noundef nonnull align 8 dereferenceable(8) %12)
  call void @llvm.memcpy.p0.p0.i64(ptr align 8 %13, ptr align 8 %7, i64 16, i1 false)
  %20 = load ptr, ptr %9, align 8
  call void @llvm.memcpy.p0.p0.i64(ptr align 4 %14, ptr align 4 %8, i64 8, i1 false)
  %21 = load ptr, ptr %11, align 8
  %22 = getelementptr inbounds nuw { ptr, i8 }, ptr %13, i32 0, i32 0
  %23 = load ptr, ptr %22, align 8
  %24 = getelementptr inbounds nuw { ptr, i8 }, ptr %13, i32 0, i32 1
  %25 = load i8, ptr %24, align 8
  %26 = load i64, ptr %14, align 4
  %27 = load ptr, ptr %19, align 8
  %28 = getelementptr inbounds ptr, ptr %27, i64 3
  %29 = load ptr, ptr %28, align 8
  %30 = call i16 %29(ptr noundef nonnull align 8 dereferenceable(72) %19, ptr %23, i8 %25, ptr noundef %20, i64 %26, ptr noundef %21)
  store i16 %30, ptr %15, align 1
  call void @_ZN4llvm18IntrusiveRefCntPtrIN5clang4ento11bugreporter7TrackerEED2Ev(ptr noundef nonnull align 8 dereferenceable(8) %12) #15
  ret void
}