; Function Attrs: mustprogress nounwind uwtable
define dso_local void @_ZN5clang4ento11bugreporter16trackStoredValueENS0_4SValEPKNS0_9MemRegionERNS0_22PathSensitiveBugReportENS1_15TrackingOptionsEPKNS_17StackFrameContextE(ptr %0, i8 %1, ptr noundef %2, ptr noundef nonnull align 8 dereferenceable(1016) %3, i64 %4, ptr noundef %5) local_unnamed_addr #0 {
  %7 = tail call noalias noundef nonnull dereferenceable(72) ptr @_Znwm(i64 noundef 72) #23, !noalias !110
  tail call void @_ZN5clang4ento11bugreporter7TrackerC1ERNS0_22PathSensitiveBugReportE(ptr noundef nonnull align 8 dereferenceable(72) %7, ptr noundef nonnull align 8 dereferenceable(1016) %3) #22, !noalias !110
  %8 = getelementptr inbounds nuw i8, ptr %7, i64 8
  %9 = load i32, ptr %8, align 4, !noalias !110
  %10 = add i32 %9, 1
  store i32 %10, ptr %8, align 4, !noalias !110
  %11 = load ptr, ptr %7, align 8
  %12 = getelementptr inbounds nuw i8, ptr %11, i64 24
  %13 = load ptr, ptr %12, align 8
  %14 = tail call i16 %13(ptr noundef nonnull align 8 dereferenceable(72) %7, ptr %0, i8 %1, ptr noundef %2, i64 %4, ptr noundef %5) #22
  %15 = load i32, ptr %8, align 4
  %16 = add i32 %15, -1
  store i32 %16, ptr %8, align 4
  %17 = icmp eq i32 %16, 0
  br i1 %17, label %18, label %_ZN4llvm18IntrusiveRefCntPtrIN5clang4ento11bugreporter7TrackerEED2Ev.exit

18:                                               ; preds = %6
  %19 = load ptr, ptr %7, align 8
  %20 = getelementptr inbounds nuw i8, ptr %19, i64 8
  %21 = load ptr, ptr %20, align 8
  tail call void %21(ptr noundef nonnull align 8 dereferenceable(72) %7) #22
  br label %_ZN4llvm18IntrusiveRefCntPtrIN5clang4ento11bugreporter7TrackerEED2Ev.exit

_ZN4llvm18IntrusiveRefCntPtrIN5clang4ento11bugreporter7TrackerEED2Ev.exit: ; preds = %6, %18
  ret void
}